target datalayout = "e-m:e-p270:32:32-p271:32:32-p272:64:64-i64:64-i128:128-f80:128-n8:16:32:64-S128"
target triple = "x86_64-pc-linux-gnu"

%struct.H5ES_t = type { i64, ptr, ptr, ptr, ptr, %struct.H5ES_event_list_t, i8, %struct.H5ES_event_list_t }
%struct.H5ES_event_list_t = type { i64, ptr, ptr }

@H5ES_init_g = global i8 0, align 1
@H5_libterm_g = external global i8, align 1
@.str = private unnamed_addr constant [101 x i8] c"generated/home/dtcxzyw/WorkSpace/Projects/compilers/llvm-opt-benchmark/bench/hdf5/hdf5/src/H5ESint.c\00", align 1
@H5E_EVENTSET_g = external global i64, align 8
@__func__.H5ES__create = private unnamed_addr constant [13 x i8] c"H5ES__create\00", align 1
@H5E_CANTALLOC_g = external global i64, align 8
@.str.2 = private unnamed_addr constant [32 x i8] c"can't allocate event set object\00", align 1
@H5E_CANTRELEASE_g = external global i64, align 8
@.str.3 = private unnamed_addr constant [25 x i8] c"unable to free event set\00", align 1
@H5E_BADITER_g = external global i64, align 8
@.str.10 = private unnamed_addr constant [17 x i8] c"iteration failed\00", align 1
@H5_H5ES_t_reg_free_list = internal global { i8, [3 x i8], i32, i32, [4 x i8], ptr, i64, ptr } { i8 0, [3 x i8] zeroinitializer, i32 0, i32 0, [4 x i8] zeroinitializer, ptr @.str.13, i64 96, ptr null }, align 8
@__func__.H5ES__close = private unnamed_addr constant [12 x i8] c"H5ES__close\00", align 1
@H5E_CANTCLOSEOBJ_g = external global i64, align 8
@.str.36 = private unnamed_addr constant [93 x i8] c"can't close event set while unfinished operations are present (i.e. wait on event set first)\00", align 1

; Function Attrs: nounwind uwtable
define internal i32 @H5ES__close(ptr noundef %0) #0 {
  %2 = alloca ptr, align 8
  %3 = alloca i32, align 4
  %4 = alloca i8, align 1
  store ptr %0, ptr %2, align 8, !tbaa !13
  call void @llvm.lifetime.start.p0(i64 4, ptr %3) #5
  store i32 0, ptr %3, align 4, !tbaa !3
  call void @llvm.lifetime.start.p0(i64 1, ptr %4) #5
  store i8 0, ptr %4, align 1, !tbaa !7
  %5 = load i8, ptr @H5ES_init_g, align 1, !tbaa !7, !range !9, !noundef !10
  %6 = trunc i8 %5 to i1
  br i1 %6, label %11, label %7

7:                                                ; preds = %1
  %8 = load i8, ptr @H5_libterm_g, align 1, !tbaa !7, !range !9, !noundef !10
  %9 = trunc i8 %8 to i1
  %10 = xor i1 %9, true
  br label %11

11:                                               ; preds = %7, %1
  %12 = phi i1 [ true, %1 ], [ %10, %7 ]
  %13 = xor i1 %12, true
  %14 = xor i1 %13, true
  %15 = zext i1 %14 to i32
  %16 = sext i32 %15 to i64
  %17 = call i64 @llvm.expect.i64(i64 %16, i64 1)
  %18 = icmp ne i64 %17, 0
  br i1 %18, label %19, label %72

19:                                               ; preds = %11
  %20 = load ptr, ptr %2, align 8, !tbaa !13
  %21 = getelementptr inbounds nuw %struct.H5ES_t, ptr %20, i32 0, i32 5
  %22 = call i64 @H5ES__list_count(ptr noundef %21)
  %23 = icmp ugt i64 %22, 0
  br i1 %23, label %24, label %43

24:                                               ; preds = %19
  br label %25

25:                                               ; preds = %24
  br label %26

26:                                               ; preds = %25
  br label %27

27:                                               ; preds = %26
  %28 = load i64, ptr @H5E_EVENTSET_g, align 8, !tbaa !11
  %29 = load i64, ptr @H5E_CANTCLOSEOBJ_g, align 8, !tbaa !11
  %30 = call i32 (ptr, ptr, i32, i64, i64, ptr, ...) @H5E_printf_stack(ptr noundef @.str, ptr noundef @__func__.H5ES__close, i32 noundef 1029, i64 noundef %28, i64 noundef %29, ptr noundef @.str.36)
  br label %31

31:                                               ; preds = %27
  br label %32

32:                                               ; preds = %31
  store i8 1, ptr %4, align 1, !tbaa !7
  %33 = load i8, ptr %4, align 1, !tbaa !7, !range !9, !noundef !10
  %34 = trunc i8 %33 to i1
  %35 = zext i1 %34 to i8
  store i8 %35, ptr %4, align 1, !tbaa !7
  br label %36

36:                                               ; preds = %32
  br label %37

37:                                               ; preds = %36
  br label %38

38:                                               ; preds = %37
  store i32 -1, ptr %3, align 4, !tbaa !3
  br label %71

39:                                               ; No predecessors!
  br label %40

40:                                               ; preds = %39
  br label %41

41:                                               ; preds = %40
  br label %42

42:                                               ; preds = %41
  br label %43

43:                                               ; preds = %42, %19
  %44 = load ptr, ptr %2, align 8, !tbaa !13
  %45 = getelementptr inbounds nuw %struct.H5ES_t, ptr %44, i32 0, i32 7
  %46 = load ptr, ptr %2, align 8, !tbaa !13
  %47 = call i32 @H5ES__list_iterate(ptr noundef %45, i32 noundef 2, ptr noundef @H5ES__close_failed_cb, ptr noundef %46)
  %48 = icmp slt i32 %47, 0
  br i1 %48, label %49, label %68

49:                                               ; preds = %43
  br label %50

50:                                               ; preds = %49
  br label %51

51:                                               ; preds = %50
  br label %52

52:                                               ; preds = %51
  %53 = load i64, ptr @H5E_EVENTSET_g, align 8, !tbaa !11
  %54 = load i64, ptr @H5E_BADITER_g, align 8, !tbaa !11
  %55 = call i32 (ptr, ptr, i32, i64, i64, ptr, ...) @H5E_printf_stack(ptr noundef @.str, ptr noundef @__func__.H5ES__close, i32 noundef 1033, i64 noundef %53, i64 noundef %54, ptr noundef @.str.10)
  br label %56

56:                                               ; preds = %52
  br label %57

57:                                               ; preds = %56
  store i8 1, ptr %4, align 1, !tbaa !7
  %58 = load i8, ptr %4, align 1, !tbaa !7, !range !9, !noundef !10
  %59 = trunc i8 %58 to i1
  %60 = zext i1 %59 to i8
  store i8 %60, ptr %4, align 1, !tbaa !7
  br label %61

61:                                               ; preds = %57
  br label %62

62:                                               ; preds = %61
  br label %63

63:                                               ; preds = %62
  store i32 -1, ptr %3, align 4, !tbaa !3
  br label %71

64:                                               ; No predecessors!
  br label %65

65:                                               ; preds = %64
  br label %66

66:                                               ; preds = %65
  br label %67

67:                                               ; preds = %66
  br label %68

68:                                               ; preds = %67, %43
  %69 = load ptr, ptr %2, align 8, !tbaa !13
  %70 = call ptr @H5FL_reg_free(ptr noundef @H5_H5ES_t_reg_free_list, ptr noundef %69)
  store ptr %70, ptr %2, align 8, !tbaa !13
  br label %71

71:                                               ; preds = %68, %63, %38
  br label %72

72:                                               ; preds = %71, %11
  %73 = load i32, ptr %3, align 4, !tbaa !3
  call void @llvm.lifetime.end.p0(i64 1, ptr %4) #5
  call void @llvm.lifetime.end.p0(i64 4, ptr %3) #5
  ret i32 %73
}

; Function Attrs: nounwind uwtable
define noalias ptr @H5ES__create() #0 {
  %1 = alloca ptr, align 8
  %2 = alloca ptr, align 8
  %3 = alloca i8, align 1
  call void @llvm.lifetime.start.p0(i64 8, ptr %1) #5
  store ptr null, ptr %1, align 8, !tbaa !13
  call void @llvm.lifetime.start.p0(i64 8, ptr %2) #5
  store ptr null, ptr %2, align 8, !tbaa !13
  call void @llvm.lifetime.start.p0(i64 1, ptr %3) #5
  store i8 0, ptr %3, align 1, !tbaa !7
  %4 = load i8, ptr @H5ES_init_g, align 1, !tbaa !7, !range !9, !noundef !10
  %5 = trunc i8 %4 to i1
  br i1 %5, label %10, label %6

6:                                                ; preds = %0
  %7 = load i8, ptr @H5_libterm_g, align 1, !tbaa !7, !range !9, !noundef !10
  %8 = trunc i8 %7 to i1
  %9 = xor i1 %8, true
  br label %10

10:                                               ; preds = %6, %0
  %11 = phi i1 [ true, %0 ], [ %9, %6 ]
  %12 = xor i1 %11, true
  %13 = xor i1 %12, true
  %14 = zext i1 %13 to i32
  %15 = sext i32 %14 to i64
  %16 = call i64 @llvm.expect.i64(i64 %15, i64 1)
  %17 = icmp ne i64 %16, 0
  br i1 %17, label %18, label %70

18:                                               ; preds = %10
  %19 = call noalias ptr @H5FL_reg_calloc(ptr noundef @H5_H5ES_t_reg_free_list)
  store ptr %19, ptr %1, align 8, !tbaa !13
  %20 = icmp eq ptr null, %19
  br i1 %20, label %21, label %40

21:                                               ; preds = %18
  br label %22

22:                                               ; preds = %21
  br label %23

23:                                               ; preds = %22
  br label %24

24:                                               ; preds = %23
  %25 = load i64, ptr @H5E_EVENTSET_g, align 8, !tbaa !11
  %26 = load i64, ptr @H5E_CANTALLOC_g, align 8, !tbaa !11
  %27 = call i32 (ptr, ptr, i32, i64, i64, ptr, ...) @H5E_printf_stack(ptr noundef @.str, ptr noundef @__func__.H5ES__create, i32 noundef 232, i64 noundef %25, i64 noundef %26, ptr noundef @.str.2)
  br label %28

28:                                               ; preds = %24
  br label %29

29:                                               ; preds = %28
  store i8 1, ptr %3, align 1, !tbaa !7
  %30 = load i8, ptr %3, align 1, !tbaa !7, !range !9, !noundef !10
  %31 = trunc i8 %30 to i1
  %32 = zext i1 %31 to i8
  store i8 %32, ptr %3, align 1, !tbaa !7
  br label %33

33:                                               ; preds = %29
  br label %34

34:                                               ; preds = %33
  br label %35

35:                                               ; preds = %34
  store ptr null, ptr %2, align 8, !tbaa !13
  br label %42

36:                                               ; No predecessors!
  br label %37

37:                                               ; preds = %36
  br label %38

38:                                               ; preds = %37
  br label %39

39:                                               ; preds = %38
  br label %40

40:                                               ; preds = %39, %18
  %41 = load ptr, ptr %1, align 8, !tbaa !13
  store ptr %41, ptr %2, align 8, !tbaa !13
  br label %42

42:                                               ; preds = %40, %35
  %43 = load ptr, ptr %2, align 8, !tbaa !13
  %44 = icmp ne ptr %43, null
  br i1 %44, label %69, label %45

45:                                               ; preds = %42
  %46 = load ptr, ptr %1, align 8, !tbaa !13
  %47 = icmp ne ptr %46, null
  br i1 %47, label %48, label %68

48:                                               ; preds = %45
  %49 = load ptr, ptr %1, align 8, !tbaa !13
  %50 = call i32 @H5ES__close(ptr noundef %49)
  %51 = icmp slt i32 %50, 0
  br i1 %51, label %52, label %68

52:                                               ; preds = %48
  br label %53

53:                                               ; preds = %52
  br label %54

54:                                               ; preds = %53
  br label %55

55:                                               ; preds = %54
  %56 = load i64, ptr @H5E_EVENTSET_g, align 8, !tbaa !11
  %57 = load i64, ptr @H5E_CANTRELEASE_g, align 8, !tbaa !11
  %58 = call i32 (ptr, ptr, i32, i64, i64, ptr, ...) @H5E_printf_stack(ptr noundef @.str, ptr noundef @__func__.H5ES__create, i32 noundef 240, i64 noundef %56, i64 noundef %57, ptr noundef @.str.3)
  br label %59

59:                                               ; preds = %55
  br label %60

60:                                               ; preds = %59
  store i8 1, ptr %3, align 1, !tbaa !7
  %61 = load i8, ptr %3, align 1, !tbaa !7, !range !9, !noundef !10
  %62 = trunc i8 %61 to i1
  %63 = zext i1 %62 to i8
  store i8 %63, ptr %3, align 1, !tbaa !7
  br label %64

64:                                               ; preds = %60
  br label %65

65:                                               ; preds = %64
  store ptr null, ptr %2, align 8, !tbaa !13
  br label %66

66:                                               ; preds = %65
  br label %67

67:                                               ; preds = %66
  br label %68

68:                                               ; preds = %67, %48, %45
  br label %69

69:                                               ; preds = %68, %42
  br label %70

70:                                               ; preds = %69, %10
  %71 = load ptr, ptr %2, align 8, !tbaa !13
  call void @llvm.lifetime.end.p0(i64 1, ptr %3) #5
  call void @llvm.lifetime.end.p0(i64 8, ptr %2) #5
  call void @llvm.lifetime.end.p0(i64 8, ptr %1) #5
  ret ptr %71
}